target datalayout = "e-m:e-p270:32:32-p271:32:32-p272:64:64-i64:64-i128:128-f80:128-n8:16:32:64-S128"
target triple = "x86_64-pc-linux-gnu"

%struct.DdManager = type { %struct.DdNode, ptr, ptr, ptr, ptr, ptr, ptr, ptr, i32, i32, double, double, double, i32, i32, i32, i32, i32, i32, ptr, ptr, %struct.DdSubtable, i32, i32, i32, i32, i32, i32, i32, double, i32, i32, i32, ptr, i64, double, i32, ptr, ptr, ptr, ptr, ptr, ptr, ptr, i32, ptr, ptr, ptr, ptr, ptr, ptr, i32, i32, i32, double, i32, i32, i32, i32, double, double, i32, i32, i32, i32, i32, i32, i32, i32, i32, ptr, ptr, i32, i32, i32, i32, i32, i32, ptr, ptr, ptr, ptr, ptr, ptr, ptr, ptr, i32, i64, i64, i64, i32, i64, i64, double, double, double, double, double, double, i32, ptr, ptr, i64 }
%struct.DdNode = type { i32, i32, ptr, %union.anon, i64 }
%union.anon = type { %struct.DdChildren }
%struct.DdChildren = type { ptr, ptr }
%struct.DdSubtable = type { ptr, i32, i32, i32, i32, i32, i32, i32, i32, i32, i32, i32 }

; Function Attrs: inlinehint nounwind uwtable
define internal i32 @ddIsIthAddVar(ptr noundef %0, ptr noundef %1, i32 noundef %2) #5 {
  %4 = alloca ptr, align 8
  %5 = alloca ptr, align 8
  %6 = alloca i32, align 4
  store ptr %0, ptr %4, align 8, !tbaa !3
  store ptr %1, ptr %5, align 8, !tbaa !8
  store i32 %2, ptr %6, align 4, !tbaa !10
  %7 = load ptr, ptr %5, align 8, !tbaa !8
  %8 = getelementptr inbounds nuw %struct.DdNode, ptr %7, i32 0, i32 0
  %9 = load i32, ptr %8, align 8, !tbaa !33
  %10 = load i32, ptr %6, align 4, !tbaa !10
  %11 = icmp eq i32 %9, %10
  br i1 %11, label %12, label %30

12:                                               ; preds = %3
  %13 = load ptr, ptr %5, align 8, !tbaa !8
  %14 = getelementptr inbounds nuw %struct.DdNode, ptr %13, i32 0, i32 3
  %15 = getelementptr inbounds nuw %struct.DdChildren, ptr %14, i32 0, i32 0
  %16 = load ptr, ptr %15, align 8, !tbaa !34
  %17 = load ptr, ptr %4, align 8, !tbaa !3
  %18 = getelementptr inbounds nuw %struct.DdManager, ptr %17, i32 0, i32 1
  %19 = load ptr, ptr %18, align 8, !tbaa !41
  %20 = icmp eq ptr %16, %19
  br i1 %20, label %21, label %30

21:                                               ; preds = %12
  %22 = load ptr, ptr %5, align 8, !tbaa !8
  %23 = getelementptr inbounds nuw %struct.DdNode, ptr %22, i32 0, i32 3
  %24 = getelementptr inbounds nuw %struct.DdChildren, ptr %23, i32 0, i32 1
  %25 = load ptr, ptr %24, align 8, !tbaa !34
  %26 = load ptr, ptr %4, align 8, !tbaa !3
  %27 = getelementptr inbounds nuw %struct.DdManager, ptr %26, i32 0, i32 2
  %28 = load ptr, ptr %27, align 8, !tbaa !42
  %29 = icmp eq ptr %25, %28
  br label %30

30:                                               ; preds = %21, %12, %3
  %31 = phi i1 [ false, %12 ], [ false, %3 ], [ %29, %21 ]
  %32 = zext i1 %31 to i32
  ret i32 %32
}

; Function Attrs: nounwind uwtable
define ptr @Cudd_addVectorCompose(ptr noundef %0, ptr noundef %1, ptr noundef %2) #0 {
  %4 = alloca ptr, align 8
  %5 = alloca ptr, align 8
  %6 = alloca ptr, align 8
  %7 = alloca ptr, align 8
  %8 = alloca ptr, align 8
  %9 = alloca ptr, align 8
  %10 = alloca i32, align 4
  %11 = alloca i32, align 4
  %12 = alloca i32, align 4
  store ptr %0, ptr %5, align 8, !tbaa !3
  store ptr %1, ptr %6, align 8, !tbaa !8
  store ptr %2, ptr %7, align 8, !tbaa !44
  call void @llvm.lifetime.start.p0(i64 8, ptr %8) #6
  call void @llvm.lifetime.start.p0(i64 8, ptr %9) #6
  call void @llvm.lifetime.start.p0(i64 4, ptr %10) #6
  call void @llvm.lifetime.start.p0(i64 4, ptr %11) #6
  br label %13

13:                                               ; preds = %70, %3
  %14 = load ptr, ptr %5, align 8, !tbaa !3
  %15 = getelementptr inbounds nuw %struct.DdManager, ptr %14, i32 0, i32 55
  store i32 0, ptr %15, align 8, !tbaa !29
  %16 = load ptr, ptr %5, align 8, !tbaa !3
  %17 = call ptr @cuddHashTableInit(ptr noundef %16, i32 noundef 1, i32 noundef 2)
  store ptr %17, ptr %8, align 8, !tbaa !38
  %18 = load ptr, ptr %8, align 8, !tbaa !38
  %19 = icmp eq ptr %18, null
  br i1 %19, label %20, label %21

20:                                               ; preds = %13
  store ptr null, ptr %4, align 8
  store i32 1, ptr %12, align 4
  br label %88

21:                                               ; preds = %13
  %22 = load ptr, ptr %5, align 8, !tbaa !3
  %23 = getelementptr inbounds nuw %struct.DdManager, ptr %22, i32 0, i32 15
  %24 = load i32, ptr %23, align 8, !tbaa !12
  %25 = sub nsw i32 %24, 1
  store i32 %25, ptr %10, align 4, !tbaa !10
  br label %26

26:                                               ; preds = %48, %21
  %27 = load i32, ptr %10, align 4, !tbaa !10
  %28 = icmp sge i32 %27, 0
  br i1 %28, label %29, label %51

29:                                               ; preds = %26
  %30 = load ptr, ptr %5, align 8, !tbaa !3
  %31 = getelementptr inbounds nuw %struct.DdManager, ptr %30, i32 0, i32 39
  %32 = load ptr, ptr %31, align 8, !tbaa !60
  %33 = load i32, ptr %10, align 4, !tbaa !10
  %34 = sext i32 %33 to i64
  %35 = getelementptr inbounds i32, ptr %32, i64 %34
  %36 = load i32, ptr %35, align 4, !tbaa !10
  store i32 %36, ptr %11, align 4, !tbaa !10
  %37 = load ptr, ptr %5, align 8, !tbaa !3
  %38 = load ptr, ptr %7, align 8, !tbaa !44
  %39 = load i32, ptr %11, align 4, !tbaa !10
  %40 = sext i32 %39 to i64
  %41 = getelementptr inbounds ptr, ptr %38, i64 %40
  %42 = load ptr, ptr %41, align 8, !tbaa !8
  %43 = load i32, ptr %11, align 4, !tbaa !10
  %44 = call i32 @ddIsIthAddVar(ptr noundef %37, ptr noundef %42, i32 noundef %43)
  %45 = icmp ne i32 %44, 0
  br i1 %45, label %47, label %46

46:                                               ; preds = %29
  br label %51

47:                                               ; preds = %29
  br label %48

48:                                               ; preds = %47
  %49 = load i32, ptr %10, align 4, !tbaa !10
  %50 = add nsw i32 %49, -1
  store i32 %50, ptr %10, align 4, !tbaa !10
  br label %26, !llvm.loop !61

51:                                               ; preds = %46, %26
  %52 = load ptr, ptr %5, align 8, !tbaa !3
  %53 = load ptr, ptr %8, align 8, !tbaa !38
  %54 = load ptr, ptr %6, align 8, !tbaa !8
  %55 = load ptr, ptr %7, align 8, !tbaa !44
  %56 = load i32, ptr %10, align 4, !tbaa !10
  %57 = call ptr @cuddAddVectorComposeRecur(ptr noundef %52, ptr noundef %53, ptr noundef %54, ptr noundef %55, i32 noundef %56)
  store ptr %57, ptr %9, align 8, !tbaa !8
  %58 = load ptr, ptr %9, align 8, !tbaa !8
  %59 = icmp ne ptr %58, null
  br i1 %59, label %60, label %68

60:                                               ; preds = %51
  %61 = load ptr, ptr %9, align 8, !tbaa !8
  %62 = ptrtoint ptr %61 to i64
  %63 = and i64 %62, -2
  %64 = inttoptr i64 %63 to ptr
  %65 = getelementptr inbounds nuw %struct.DdNode, ptr %64, i32 0, i32 1
  %66 = load i32, ptr %65, align 4, !tbaa !35
  %67 = add i32 %66, 1
  store i32 %67, ptr %65, align 4, !tbaa !35
  br label %68

68:                                               ; preds = %60, %51
  %69 = load ptr, ptr %8, align 8, !tbaa !38
  call void @cuddHashTableQuit(ptr noundef %69)
  br label %70

70:                                               ; preds = %68
  %71 = load ptr, ptr %5, align 8, !tbaa !3
  %72 = getelementptr inbounds nuw %struct.DdManager, ptr %71, i32 0, i32 55
  %73 = load i32, ptr %72, align 8, !tbaa !29
  %74 = icmp eq i32 %73, 1
  br i1 %74, label %13, label %75, !llvm.loop !62

75:                                               ; preds = %70
  %76 = load ptr, ptr %9, align 8, !tbaa !8
  %77 = icmp ne ptr %76, null
  br i1 %77, label %78, label %86

78:                                               ; preds = %75
  %79 = load ptr, ptr %9, align 8, !tbaa !8
  %80 = ptrtoint ptr %79 to i64
  %81 = and i64 %80, -2
  %82 = inttoptr i64 %81 to ptr
  %83 = getelementptr inbounds nuw %struct.DdNode, ptr %82, i32 0, i32 1
  %84 = load i32, ptr %83, align 4, !tbaa !35
  %85 = add i32 %84, -1
  store i32 %85, ptr %83, align 4, !tbaa !35
  br label %86

86:                                               ; preds = %78, %75
  %87 = load ptr, ptr %9, align 8, !tbaa !8
  store ptr %87, ptr %4, align 8
  store i32 1, ptr %12, align 4
  br label %88

88:                                               ; preds = %86, %20
  call void @llvm.lifetime.end.p0(i64 4, ptr %11) #6
  call void @llvm.lifetime.end.p0(i64 4, ptr %10) #6
  call void @llvm.lifetime.end.p0(i64 8, ptr %9) #6
  call void @llvm.lifetime.end.p0(i64 8, ptr %8) #6
  %89 = load ptr, ptr %4, align 8
  ret ptr %89
}