; Function Attrs: nounwind uwtable
define ptr @Cudd_addVectorCompose(ptr noundef initializes((448, 452)) %0, ptr noundef %1, ptr noundef %2) local_unnamed_addr #0 {
  %4 = getelementptr inbounds nuw i8, ptr %0, i64 448
  store i32 0, ptr %4, align 8, !tbaa !26
  %5 = tail call ptr @cuddHashTableInit(ptr noundef %0, i32 noundef 1, i32 noundef 2) #7
  %6 = icmp eq ptr %5, null
  br i1 %6, label %.loopexit, label %.lr.ph

.lr.ph:                                           ; preds = %3
  %7 = getelementptr inbounds nuw i8, ptr %0, i64 136
  %8 = getelementptr inbounds nuw i8, ptr %0, i64 328
  %9 = getelementptr inbounds nuw i8, ptr %0, i64 40
  %10 = getelementptr inbounds nuw i8, ptr %0, i64 48
  br label %11

11:                                               ; preds = %.lr.ph, %.backedge
  %12 = phi ptr [ %5, %.lr.ph ], [ %41, %.backedge ]
  %13 = load i32, ptr %7, align 8, !tbaa !3
  %14 = zext i32 %13 to i64
  %smin = tail call i32 @llvm.smin.i32(i32 %13, i32 0)
  %15 = add i32 %smin, -1
  br label %16

16:                                               ; preds = %ddIsIthAddVar.exit, %11
  %indvars.iv = phi i64 [ %indvars.iv.next, %ddIsIthAddVar.exit ], [ %14, %11 ]
  %indvars.iv.next = add nsw i64 %indvars.iv, -1
  %17 = trunc nuw i64 %indvars.iv to i32
  %18 = icmp sgt i32 %17, 0
  br i1 %18, label %19, label %ddIsIthAddVar.exit.thread

19:                                               ; preds = %16
  %20 = load ptr, ptr %8, align 8, !tbaa !56
  %21 = and i64 %indvars.iv.next, 4294967295
  %22 = getelementptr inbounds nuw i32, ptr %20, i64 %21
  %23 = load i32, ptr %22, align 4, !tbaa !31
  %24 = sext i32 %23 to i64
  %25 = getelementptr inbounds ptr, ptr %2, i64 %24
  %26 = load ptr, ptr %25, align 8, !tbaa !25
  %27 = load i32, ptr %26, align 8, !tbaa !30
  %28 = icmp eq i32 %27, %23
  br i1 %28, label %29, label %ddIsIthAddVar.exit.thread.split.loop.exit

29:                                               ; preds = %19
  %30 = getelementptr inbounds nuw i8, ptr %26, i64 16
  %31 = load ptr, ptr %30, align 8, !tbaa !32
  %32 = load ptr, ptr %9, align 8, !tbaa !36
  %33 = icmp eq ptr %31, %32
  br i1 %33, label %ddIsIthAddVar.exit, label %ddIsIthAddVar.exit.thread.split.loop.exit36

ddIsIthAddVar.exit:                               ; preds = %29
  %34 = getelementptr inbounds nuw i8, ptr %26, i64 24
  %35 = load ptr, ptr %34, align 8, !tbaa !32
  %36 = load ptr, ptr %10, align 8, !tbaa !37
  %.not = icmp eq ptr %35, %36
  br i1 %.not, label %16, label %ddIsIthAddVar.exit.thread.split.loop.exit38, !llvm.loop !57

ddIsIthAddVar.exit.thread.split.loop.exit:        ; preds = %19
  %indvars.le44 = trunc i64 %indvars.iv.next to i32
  br label %ddIsIthAddVar.exit.thread

ddIsIthAddVar.exit.thread.split.loop.exit36:      ; preds = %29
  %indvars.le42 = trunc i64 %indvars.iv.next to i32
  br label %ddIsIthAddVar.exit.thread

ddIsIthAddVar.exit.thread.split.loop.exit38:      ; preds = %ddIsIthAddVar.exit
  %indvars.le = trunc i64 %indvars.iv.next to i32
  br label %ddIsIthAddVar.exit.thread

ddIsIthAddVar.exit.thread:                        ; preds = %16, %ddIsIthAddVar.exit.thread.split.loop.exit38, %ddIsIthAddVar.exit.thread.split.loop.exit36, %ddIsIthAddVar.exit.thread.split.loop.exit
  %.024.lcssa = phi i32 [ %indvars.le44, %ddIsIthAddVar.exit.thread.split.loop.exit ], [ %indvars.le42, %ddIsIthAddVar.exit.thread.split.loop.exit36 ], [ %indvars.le, %ddIsIthAddVar.exit.thread.split.loop.exit38 ], [ %15, %16 ]
  %37 = tail call fastcc ptr @cuddAddVectorComposeRecur(ptr noundef nonnull %0, ptr noundef %12, ptr noundef %1, ptr noundef %2, i32 noundef %.024.lcssa)
  %.not27 = icmp eq ptr %37, null
  br i1 %.not27, label %38, label %.thread

38:                                               ; preds = %ddIsIthAddVar.exit.thread
  tail call void @cuddHashTableQuit(ptr noundef nonnull %12) #7
  %39 = load i32, ptr %4, align 8, !tbaa !26
  %40 = icmp eq i32 %39, 1
  br i1 %40, label %.backedge, label %.loopexit

.backedge:                                        ; preds = %38, %.thread
  store i32 0, ptr %4, align 8, !tbaa !26
  %41 = tail call ptr @cuddHashTableInit(ptr noundef nonnull %0, i32 noundef 1, i32 noundef 2) #7
  %42 = icmp eq ptr %41, null
  br i1 %42, label %.loopexit, label %11, !llvm.loop !58

.thread:                                          ; preds = %ddIsIthAddVar.exit.thread
  %43 = ptrtoint ptr %37 to i64
  %44 = and i64 %43, -2
  %45 = inttoptr i64 %44 to ptr
  %46 = getelementptr inbounds nuw i8, ptr %45, i64 4
  %47 = load i32, ptr %46, align 4, !tbaa !33
  %48 = add i32 %47, 1
  store i32 %48, ptr %46, align 4, !tbaa !33
  tail call void @cuddHashTableQuit(ptr noundef nonnull %12) #7
  %49 = load i32, ptr %4, align 8, !tbaa !26
  %50 = icmp eq i32 %49, 1
  br i1 %50, label %.backedge, label %51

51:                                               ; preds = %.thread
  %52 = getelementptr inbounds nuw i8, ptr %45, i64 4
  %53 = load i32, ptr %52, align 4, !tbaa !33
  %54 = add i32 %53, -1
  store i32 %54, ptr %52, align 4, !tbaa !33
  br label %.loopexit

.loopexit:                                        ; preds = %.backedge, %38, %3, %51
  %.0 = phi ptr [ %37, %51 ], [ null, %3 ], [ null, %38 ], [ null, %.backedge ]
  ret ptr %.0
}